target datalayout = "e-m:e-p270:32:32-p271:32:32-p272:64:64-i64:64-i128:128-f80:128-n8:16:32:64-S128"
target triple = "x86_64-pc-linux-gnu"

%struct.pos = type { [4 x [4 x i16]], [4 x i16], [4 x [4 x i8]], [4 x i32], [50 x [4 x i16]], [50 x i32], [50 x %struct.moveType], i32, i32, [4 x %struct.highCardType], [4 x %struct.highCardType] }
%struct.moveType = type { i32, i32, i32, i32 }
%struct.highCardType = type { i32, i32 }
%struct.ThreadData = type { [4 x i32], i32, i8, [4 x [4 x i16]], i32, %struct.pos, i8, [50 x [4 x i16]], [13 x %struct.WinnersType], [14 x %struct.moveType], [50 x %struct.moveType], [50 x %struct.moveType], double, i32, i32, [8192 x %struct.relRanksType], ptr, %class.Moves }
%struct.WinnersType = type { i32, [4 x %struct.WinnerEntryType] }
%struct.WinnerEntryType = type { i32, i32, i32, i32, i32 }
%struct.relRanksType = type { [15 x [4 x %struct.absRankType]] }
%struct.absRankType = type { i8, i8 }
%class.Moves = type { i32, i32, i32, i32, i32, i32, i32, i32, i32, [13 x %"struct.Moves::trackType"], ptr, [13 x [4 x %struct.movePlyType]], ptr, [13 x [4 x i32]], [13 x %"class.std::__cxx11::basic_string"], [13 x [4 x %"struct.Moves::moveStatType"]], [13 x [4 x %"struct.Moves::moveStatType"]], [13 x [4 x %"struct.Moves::moveStatsType"]], [13 x [4 x %"struct.Moves::moveStatsType"]], %"struct.Moves::moveStatsType", %"struct.Moves::moveStatsType", [16 x { i64, i64 }] }
%"struct.Moves::trackType" = type { i32, i32, [4 x i32], [4 x i32], %struct.trickDataType, [4 x %struct.extCard], [4 x i32], [4 x [4 x i32]], [4 x i32] }
%struct.trickDataType = type { [4 x i32], i32, i32, i32, i32, i32 }
%struct.extCard = type { i32, i32, i32 }
%struct.movePlyType = type { [14 x %struct.moveType], i32, i32 }
%"class.std::__cxx11::basic_string" = type { %"struct.std::__cxx11::basic_string<char>::_Alloc_hider", i64, %union.anon }
%"struct.std::__cxx11::basic_string<char>::_Alloc_hider" = type { ptr }
%union.anon = type { i64, [8 x i8] }
%"struct.Moves::moveStatType" = type { i32, i32, i32, i32 }
%"struct.Moves::moveStatsType" = type { i32, [13 x %"struct.Moves::moveStatType"] }

@bitMapRank = external global [16 x i16], align 16
@_ZL9handDelta = internal constant [4 x i32] [i32 256, i32 16, i32 1, i32 0], align 16

; Function Attrs: mustprogress nounwind uwtable
define void @_Z5Undo0P3posiRK8moveTypePK10ThreadData(ptr noundef %0, i32 noundef %1, ptr noundef nonnull align 4 dereferenceable(16) %2, ptr noundef %3) #5 {
  %5 = alloca ptr, align 8
  %6 = alloca i32, align 4
  %7 = alloca ptr, align 8
  %8 = alloca ptr, align 8
  %9 = alloca i32, align 4
  %10 = alloca i32, align 4
  %11 = alloca i32, align 4
  %12 = alloca ptr, align 8
  %13 = alloca i32, align 4
  %14 = alloca i32, align 4
  store ptr %0, ptr %5, align 8
  store i32 %1, ptr %6, align 4
  store ptr %2, ptr %7, align 8
  store ptr %3, ptr %8, align 8
  %15 = load ptr, ptr %5, align 8
  %16 = getelementptr inbounds nuw %struct.pos, ptr %15, i32 0, i32 5
  %17 = load i32, ptr %6, align 4
  %18 = sext i32 %17 to i64
  %19 = getelementptr inbounds [50 x i32], ptr %16, i64 0, i64 %18
  %20 = load i32, ptr %19, align 4
  %21 = add nsw i32 %20, 3
  %22 = and i32 %21, 3
  store i32 %22, ptr %9, align 4
  %23 = load ptr, ptr %7, align 8
  %24 = getelementptr inbounds nuw %struct.moveType, ptr %23, i32 0, i32 0
  %25 = load i32, ptr %24, align 4
  store i32 %25, ptr %10, align 4
  %26 = load ptr, ptr %7, align 8
  %27 = getelementptr inbounds nuw %struct.moveType, ptr %26, i32 0, i32 1
  %28 = load i32, ptr %27, align 4
  store i32 %28, ptr %11, align 4
  %29 = load i32, ptr %11, align 4
  %30 = sext i32 %29 to i64
  %31 = getelementptr inbounds [16 x i16], ptr @bitMapRank, i64 0, i64 %30
  %32 = load i16, ptr %31, align 2
  %33 = zext i16 %32 to i32
  %34 = load ptr, ptr %5, align 8
  %35 = getelementptr inbounds nuw %struct.pos, ptr %34, i32 0, i32 0
  %36 = load i32, ptr %9, align 4
  %37 = sext i32 %36 to i64
  %38 = getelementptr inbounds [4 x [4 x i16]], ptr %35, i64 0, i64 %37
  %39 = load i32, ptr %10, align 4
  %40 = sext i32 %39 to i64
  %41 = getelementptr inbounds [4 x i16], ptr %38, i64 0, i64 %40
  %42 = load i16, ptr %41, align 2
  %43 = zext i16 %42 to i32
  %44 = or i32 %43, %33
  %45 = trunc i32 %44 to i16
  store i16 %45, ptr %41, align 2
  %46 = load i32, ptr %11, align 4
  %47 = sext i32 %46 to i64
  %48 = getelementptr inbounds [16 x i16], ptr @bitMapRank, i64 0, i64 %47
  %49 = load i16, ptr %48, align 2
  %50 = zext i16 %49 to i32
  %51 = load ptr, ptr %5, align 8
  %52 = getelementptr inbounds nuw %struct.pos, ptr %51, i32 0, i32 1
  %53 = load i32, ptr %10, align 4
  %54 = sext i32 %53 to i64
  %55 = getelementptr inbounds [4 x i16], ptr %52, i64 0, i64 %54
  %56 = load i16, ptr %55, align 2
  %57 = zext i16 %56 to i32
  %58 = or i32 %57, %50
  %59 = trunc i32 %58 to i16
  store i16 %59, ptr %55, align 2
  %60 = load i32, ptr %10, align 4
  %61 = sext i32 %60 to i64
  %62 = getelementptr inbounds [4 x i32], ptr @_ZL9handDelta, i64 0, i64 %61
  %63 = load i32, ptr %62, align 4
  %64 = load ptr, ptr %5, align 8
  %65 = getelementptr inbounds nuw %struct.pos, ptr %64, i32 0, i32 3
  %66 = load i32, ptr %9, align 4
  %67 = sext i32 %66 to i64
  %68 = getelementptr inbounds [4 x i32], ptr %65, i64 0, i64 %67
  %69 = load i32, ptr %68, align 4
  %70 = add nsw i32 %69, %63
  store i32 %70, ptr %68, align 4
  %71 = load ptr, ptr %5, align 8
  %72 = getelementptr inbounds nuw %struct.pos, ptr %71, i32 0, i32 2
  %73 = load i32, ptr %9, align 4
  %74 = sext i32 %73 to i64
  %75 = getelementptr inbounds [4 x [4 x i8]], ptr %72, i64 0, i64 %74
  %76 = load i32, ptr %10, align 4
  %77 = sext i32 %76 to i64
  %78 = getelementptr inbounds [4 x i8], ptr %75, i64 0, i64 %77
  %79 = load i8, ptr %78, align 1
  %80 = add i8 %79, 1
  store i8 %80, ptr %78, align 1
  %81 = load ptr, ptr %8, align 8
  %82 = getelementptr inbounds nuw %struct.ThreadData, ptr %81, i32 0, i32 8
  %83 = load i32, ptr %6, align 4
  %84 = add nsw i32 %83, 3
  %85 = ashr i32 %84, 2
  %86 = sext i32 %85 to i64
  %87 = getelementptr inbounds [13 x %struct.WinnersType], ptr %82, i64 0, i64 %86
  store ptr %87, ptr %12, align 8
  store i32 0, ptr %13, align 4
  br label %88

88:                                               ; preds = %154, %4
  %89 = load i32, ptr %13, align 4
  %90 = load ptr, ptr %12, align 8
  %91 = getelementptr inbounds nuw %struct.WinnersType, ptr %90, i32 0, i32 0
  %92 = load i32, ptr %91, align 4
  %93 = icmp slt i32 %89, %92
  br i1 %93, label %94, label %157

94:                                               ; preds = %88
  %95 = load ptr, ptr %12, align 8
  %96 = getelementptr inbounds nuw %struct.WinnersType, ptr %95, i32 0, i32 1
  %97 = load i32, ptr %13, align 4
  %98 = sext i32 %97 to i64
  %99 = getelementptr inbounds [4 x %struct.WinnerEntryType], ptr %96, i64 0, i64 %98
  %100 = getelementptr inbounds nuw %struct.WinnerEntryType, ptr %99, i32 0, i32 0
  %101 = load i32, ptr %100, align 4
  store i32 %101, ptr %14, align 4
  %102 = load ptr, ptr %12, align 8
  %103 = getelementptr inbounds nuw %struct.WinnersType, ptr %102, i32 0, i32 1
  %104 = load i32, ptr %13, align 4
  %105 = sext i32 %104 to i64
  %106 = getelementptr inbounds [4 x %struct.WinnerEntryType], ptr %103, i64 0, i64 %105
  %107 = getelementptr inbounds nuw %struct.WinnerEntryType, ptr %106, i32 0, i32 1
  %108 = load i32, ptr %107, align 4
  %109 = load ptr, ptr %5, align 8
  %110 = getelementptr inbounds nuw %struct.pos, ptr %109, i32 0, i32 9
  %111 = load i32, ptr %14, align 4
  %112 = sext i32 %111 to i64
  %113 = getelementptr inbounds [4 x %struct.highCardType], ptr %110, i64 0, i64 %112
  %114 = getelementptr inbounds nuw %struct.highCardType, ptr %113, i32 0, i32 0
  store i32 %108, ptr %114, align 4
  %115 = load ptr, ptr %12, align 8
  %116 = getelementptr inbounds nuw %struct.WinnersType, ptr %115, i32 0, i32 1
  %117 = load i32, ptr %13, align 4
  %118 = sext i32 %117 to i64
  %119 = getelementptr inbounds [4 x %struct.WinnerEntryType], ptr %116, i64 0, i64 %118
  %120 = getelementptr inbounds nuw %struct.WinnerEntryType, ptr %119, i32 0, i32 2
  %121 = load i32, ptr %120, align 4
  %122 = load ptr, ptr %5, align 8
  %123 = getelementptr inbounds nuw %struct.pos, ptr %122, i32 0, i32 9
  %124 = load i32, ptr %14, align 4
  %125 = sext i32 %124 to i64
  %126 = getelementptr inbounds [4 x %struct.highCardType], ptr %123, i64 0, i64 %125
  %127 = getelementptr inbounds nuw %struct.highCardType, ptr %126, i32 0, i32 1
  store i32 %121, ptr %127, align 4
  %128 = load ptr, ptr %12, align 8
  %129 = getelementptr inbounds nuw %struct.WinnersType, ptr %128, i32 0, i32 1
  %130 = load i32, ptr %13, align 4
  %131 = sext i32 %130 to i64
  %132 = getelementptr inbounds [4 x %struct.WinnerEntryType], ptr %129, i64 0, i64 %131
  %133 = getelementptr inbounds nuw %struct.WinnerEntryType, ptr %132, i32 0, i32 3
  %134 = load i32, ptr %133, align 4
  %135 = load ptr, ptr %5, align 8
  %136 = getelementptr inbounds nuw %struct.pos, ptr %135, i32 0, i32 10
  %137 = load i32, ptr %14, align 4
  %138 = sext i32 %137 to i64
  %139 = getelementptr inbounds [4 x %struct.highCardType], ptr %136, i64 0, i64 %138
  %140 = getelementptr inbounds nuw %struct.highCardType, ptr %139, i32 0, i32 0
  store i32 %134, ptr %140, align 4
  %141 = load ptr, ptr %12, align 8
  %142 = getelementptr inbounds nuw %struct.WinnersType, ptr %141, i32 0, i32 1
  %143 = load i32, ptr %13, align 4
  %144 = sext i32 %143 to i64
  %145 = getelementptr inbounds [4 x %struct.WinnerEntryType], ptr %142, i64 0, i64 %144
  %146 = getelementptr inbounds nuw %struct.WinnerEntryType, ptr %145, i32 0, i32 4
  %147 = load i32, ptr %146, align 4
  %148 = load ptr, ptr %5, align 8
  %149 = getelementptr inbounds nuw %struct.pos, ptr %148, i32 0, i32 10
  %150 = load i32, ptr %14, align 4
  %151 = sext i32 %150 to i64
  %152 = getelementptr inbounds [4 x %struct.highCardType], ptr %149, i64 0, i64 %151
  %153 = getelementptr inbounds nuw %struct.highCardType, ptr %152, i32 0, i32 1
  store i32 %147, ptr %153, align 4
  br label %154

154:                                              ; preds = %94
  %155 = load i32, ptr %13, align 4
  %156 = add nsw i32 %155, 1
  store i32 %156, ptr %13, align 4
  br label %88, !llvm.loop !40

157:                                              ; preds = %88
  ret void
}