; Function Attrs: mustprogress nofree norecurse nosync nounwind memory(read, argmem: readwrite, inaccessiblemem: none) uwtable
define void @_Z5Undo0P3posiRK8moveTypePK10ThreadData(ptr nocapture noundef %0, i32 noundef %1, ptr nocapture noundef nonnull readonly align 4 dereferenceable(16) %2, ptr nocapture noundef readonly %3) local_unnamed_addr #7 {
  %5 = getelementptr inbounds nuw i8, ptr %0, i64 472
  %6 = sext i32 %1 to i64
  %7 = getelementptr inbounds [50 x i32], ptr %5, i64 0, i64 %6
  %8 = load i32, ptr %7, align 4
  %9 = add nsw i32 %8, 3
  %10 = and i32 %9, 3
  %11 = load i32, ptr %2, align 4
  %12 = getelementptr inbounds nuw i8, ptr %2, i64 4
  %13 = load i32, ptr %12, align 4
  %14 = sext i32 %13 to i64
  %15 = getelementptr inbounds [16 x i16], ptr @bitMapRank, i64 0, i64 %14
  %16 = load i16, ptr %15, align 2
  %17 = zext nneg i32 %10 to i64
  %18 = sext i32 %11 to i64
  %19 = getelementptr inbounds [4 x [4 x i16]], ptr %0, i64 0, i64 %17, i64 %18
  %20 = load i16, ptr %19, align 2
  %21 = or i16 %20, %16
  store i16 %21, ptr %19, align 2
  %22 = load i16, ptr %15, align 2
  %23 = getelementptr inbounds nuw i8, ptr %0, i64 32
  %24 = getelementptr inbounds [4 x i16], ptr %23, i64 0, i64 %18
  %25 = load i16, ptr %24, align 2
  %26 = or i16 %25, %22
  store i16 %26, ptr %24, align 2
  %27 = getelementptr inbounds [4 x i32], ptr @_ZL9handDelta, i64 0, i64 %18
  %28 = load i32, ptr %27, align 4
  %29 = getelementptr inbounds nuw i8, ptr %0, i64 56
  %30 = getelementptr inbounds [4 x i32], ptr %29, i64 0, i64 %17
  %31 = load i32, ptr %30, align 4
  %32 = add nsw i32 %31, %28
  store i32 %32, ptr %30, align 4
  %33 = getelementptr inbounds nuw i8, ptr %0, i64 40
  %34 = getelementptr inbounds [4 x [4 x i8]], ptr %33, i64 0, i64 %17, i64 %18
  %35 = load i8, ptr %34, align 1
  %36 = add i8 %35, 1
  store i8 %36, ptr %34, align 1
  %37 = getelementptr inbounds nuw i8, ptr %3, i64 2008
  %38 = add nsw i32 %1, 3
  %39 = ashr i32 %38, 2
  %40 = sext i32 %39 to i64
  %41 = getelementptr inbounds [13 x %struct.WinnersType], ptr %37, i64 0, i64 %40
  %42 = load i32, ptr %41, align 4
  %43 = icmp sgt i32 %42, 0
  br i1 %43, label %.lr.ph, label %._crit_edge

.lr.ph:                                           ; preds = %4
  %44 = getelementptr inbounds nuw i8, ptr %41, i64 4
  %45 = getelementptr inbounds nuw i8, ptr %0, i64 1480
  %46 = getelementptr inbounds nuw i8, ptr %0, i64 1512
  br label %47

47:                                               ; preds = %.lr.ph, %47
  %indvars.iv = phi i64 [ 0, %.lr.ph ], [ %indvars.iv.next, %47 ]
  %48 = getelementptr inbounds [4 x %struct.WinnerEntryType], ptr %44, i64 0, i64 %indvars.iv
  %49 = load i32, ptr %48, align 4
  %50 = getelementptr inbounds nuw i8, ptr %48, i64 4
  %51 = load i32, ptr %50, align 4
  %52 = sext i32 %49 to i64
  %53 = getelementptr inbounds [4 x %struct.highCardType], ptr %45, i64 0, i64 %52
  store i32 %51, ptr %53, align 4
  %54 = getelementptr inbounds nuw i8, ptr %48, i64 8
  %55 = load i32, ptr %54, align 4
  %56 = getelementptr inbounds nuw i8, ptr %53, i64 4
  store i32 %55, ptr %56, align 4
  %57 = getelementptr inbounds nuw i8, ptr %48, i64 12
  %58 = load i32, ptr %57, align 4
  %59 = getelementptr inbounds [4 x %struct.highCardType], ptr %46, i64 0, i64 %52
  store i32 %58, ptr %59, align 4
  %60 = getelementptr inbounds nuw i8, ptr %48, i64 16
  %61 = load i32, ptr %60, align 4
  %62 = getelementptr inbounds nuw i8, ptr %59, i64 4
  store i32 %61, ptr %62, align 4
  %indvars.iv.next = add nuw nsw i64 %indvars.iv, 1
  %63 = load i32, ptr %41, align 4
  %64 = sext i32 %63 to i64
  %65 = icmp slt i64 %indvars.iv.next, %64
  br i1 %65, label %47, label %._crit_edge, !llvm.loop !23

._crit_edge:                                      ; preds = %47, %4
  ret void
}